(lp0
(lp1
V\u5faa\u5e8f\u6e10\u8fdb\u5b66\u6444\u5f71\u521d\u7ea7\u73ed
p2
a(lp3
V\u5b66\u6444\u5f71\u7b2c1\u5929\uff0c\u4e3a\u8c01\u800c\u6444\uff1f
p4
aV\u8ba4\u8bc6\u5355\u53cd\uff0c\u5e76\u5c1d\u8bd5\u62e5\u6709\u5b83
p5
aV\u5168\u753b\u5e45\u4e0e\u975e\u5168\u753b\u5e45\u533a\u522b
p6
aV\u5c3c\u5eb7\u5355\u53cd\u673a\u5668\u4ecb\u7ecd
p7
aV\u4e86\u89e3\u955c\u5934\uff0c\u955c\u5934\u4f5c\u7528\u662f\u4f5c\u7528\u6709\u90a3\u4e9b
p8
aV\u955c\u5934\u6240\u5ef6\u4f38\u7684\u77e5\u8bc6\u70b9-\u7126\u8ddd
p9
aV\u955c\u5934\u7126\u8ddd\u4e0e\u89c6\u89d2
p10
aV\u725b\u5934\u4e0e\u72d7\u5934
p11
aV\u955c\u5934\u5e38\u89c1\u6807\u8bc6\u4e0e\u672f\u8bed
p12
aV\u6ca1\u6709\u7edd\u5bf9\u7684\u66dd\u5149
p13
aV\u65e7\u5149\u5708\u65b0\u77e5\u8bc6
p14
aV\u6052\u5b9a\u4e0e\u975e\u6052\u5b9a\u5149\u5708\u955c\u5934
p15
aV\u4f73\u80fd\u5c3c\u5eb7\u5e7f\u89d2\u955c\u5934\u4f7f\u7528\u5fc3\u5f97
p16
aV\u4f73\u80fd\u5c3c\u5eb7\u5b9a\u7126\u955c\u5934\u4f7f\u7528\u5fc3\u5f97
p17
aV\u4f73\u80fd\u5c3c\u5eb7\u957f\u7126\u955c\u5934\u4f7f\u7528\u5fc3\u5f97
p18
aV\u5feb\u95e8\u8ba4\u8bc6\u4e0e\u5b9e\u8df5\u4f5c\u7528
p19
aVB\u95e8\u53ef\u4ee5\u505a\u4ec0\u4e48
p20
aVISO\u7684\u4f5c\u7528\u4ee5\u53ca\u4f7f\u7528\u5fc3\u5f97
p21
aV\u62cd\u6444\u6a21\u5f0f\u7684\u7406\u89e3\u4e0e\u5e94\u7528
p22
aV\u66dd\u5149\u8865\u507f\u7684\u7406\u89e3\u4e0e\u5e94\u7528
p23
aVM\u6863\u624b\u52a8\u66dd\u5149\u5b9e\u8df5
p24
aV\u4e00\u5b9a\u8981\u5f04\u61c2\u7684\u666f\u6df1
p25
aV\u5149\u5708\u5feb\u95e8ISO\u66dd\u5149\u7efc\u5408\u5e94\u7528
p26
aV\u624b\u52a8\u5bf9\u7126\u4e0e\u81ea\u52a8\u5bf9\u7126
p27
aV\u4f73\u80fd\u5355\u53cd\u5bf9\u7126\u6a21\u5f0f
p28
aV\u5c3c\u5eb7\u5355\u53cd\u5bf9\u7126\u6a21\u5f0f
p29
aV\u4e0d\u5c3d\u4eba\u610f\u7684\u9501\u5b9a\u5bf9\u7126
p30
aV\u5f88\u591a\u4eba\u5206\u4e0d\u6e05\u7684\u66dd\u5149\u9501\u5b9a
p31
aV\u4ec0\u4e48\u662f\u6d4b\u5149\uff0c\u5f88\u91cd\u8981\u5417\uff1f
p32
aV\u5982\u4f55\u7406\u89e3\u5bf9\u7126\u4e0e\u6d4b\u5149\u662f\u5206\u5f00\u7684
p33
aV\u5982\u4f55\u5c3d\u91cf\u51cf\u5c11\u8dd1\u7126\u95ee\u9898
p34
aa(lp35
(lp36
a(lp37
Vhttp://video.study.163.com/edu-video/nos/flv/2015/02/27/1269007_shd.flv?ak=99ed7479ee303d1b1361b0ee5a4abcee9187469e6f5a484096682483ea133835eb3d986083591f292ae744ef1b8648f05af3600682ead0947bd94344296e3465fd22f0a6556a9702b53b2c87906e579c5e32b4df98e0528866f8b0cccbc20dc6dfac4d6536764a6d54ca2d79bb9b8a9a05ec7a6a239bbe98a3415ac79332c36998dadda24653d8c14954d65fb8e477caa507ceb1f61e74fd7d0a6a7647f4f4bb133034bdd7ff8fe592787597dcd2dbb0
p38
aa(lp39
Vhttp://video.study.163.com/edu-video/nos/flv/2015/02/27/1269008_shd.flv?ak=99ed7479ee303d1b1361b0ee5a4abcee9187469e6f5a484096682483ea133835db23f8147cf99ca3a762a91e671d769e230d1a0554e5af04c3dee1c439f9f902fd22f0a6556a9702b53b2c87906e579c5e32b4df98e0528866f8b0cccbc20dc6dfac4d6536764a6d54ca2d79bb9b8a9a05ec7a6a239bbe98a3415ac79332c36998dadda24653d8c14954d65fb8e477caa507ceb1f61e74fd7d0a6a7647f4f4bb133034bdd7ff8fe592787597dcd2dbb0
p40
aa(lp41
Vhttp://video.study.163.com/edu-video/nos/flv/2015/02/27/1271003_shd.flv?ak=99ed7479ee303d1b1361b0ee5a4abcee9187469e6f5a484096682483ea1338356596907660c52bc5afac34a596645ea1ad957b2460e88ece11e39c57460ff338fd22f0a6556a9702b53b2c87906e579c5e32b4df98e0528866f8b0cccbc20dc6dfac4d6536764a6d54ca2d79bb9b8a9a05ec7a6a239bbe98a3415ac79332c36998dadda24653d8c14954d65fb8e477caa507ceb1f61e74fd7d0a6a7647f4f4bb133034bdd7ff8fe592787597dcd2dbb0
p42
aa(lp43
Vhttp://video.study.163.com/edu-video/nos/flv/2015/02/27/1271004_shd.flv?ak=99ed7479ee303d1b1361b0ee5a4abcee9187469e6f5a484096682483ea13383531ffbf56c44dca18020d89952d5e8d072418999f1aa1568bd365cb7f80681ee7fd22f0a6556a9702b53b2c87906e579c5e32b4df98e0528866f8b0cccbc20dc6dfac4d6536764a6d54ca2d79bb9b8a9a05ec7a6a239bbe98a3415ac79332c36998dadda24653d8c14954d65fb8e477caa507ceb1f61e74fd7d0a6a7647f4f4bb133034bdd7ff8fe592787597dcd2dbb0
p44
aa(lp45
Vhttp://video.study.163.com/edu-video/nos/flv/2015/02/27/1270005_shd.flv?ak=99ed7479ee303d1b1361b0ee5a4abcee9187469e6f5a484096682483ea1338354af2a0884acc41173754931e48f190b1e762a5f708642b5539601bf3d40205cdfd22f0a6556a9702b53b2c87906e579c5e32b4df98e0528866f8b0cccbc20dc6dfac4d6536764a6d54ca2d79bb9b8a9a05ec7a6a239bbe98a3415ac79332c36998dadda24653d8c14954d65fb8e477caa507ceb1f61e74fd7d0a6a7647f4f4bb133034bdd7ff8fe592787597dcd2dbb0
p46
aa(lp47
Vhttp://video.study.163.com/edu-video/nos/flv/2015/02/27/1270006_shd.flv?ak=99ed7479ee303d1b1361b0ee5a4abcee9187469e6f5a484096682483ea133835f9dc8ccd15ab2c74454f9b466d560f661f60ecba9da88ea33653125ced72c6e3fd22f0a6556a9702b53b2c87906e579c5e32b4df98e0528866f8b0cccbc20dc6dfac4d6536764a6d54ca2d79bb9b8a9a05ec7a6a239bbe98a3415ac79332c36998dadda24653d8c14954d65fb8e477caa507ceb1f61e74fd7d0a6a7647f4f4bb133034bdd7ff8fe592787597dcd2dbb0
p48
aa(lp49
Vhttp://video.study.163.com/edu-video/nos/flv/2015/02/27/1270007_shd.flv?ak=99ed7479ee303d1b1361b0ee5a4abcee9187469e6f5a484096682483ea1338351d387602ec12962d419550951a260b62a26675766710f7199e590c2a0ecdca68fd22f0a6556a9702b53b2c87906e579c5e32b4df98e0528866f8b0cccbc20dc6dfac4d6536764a6d54ca2d79bb9b8a9a05ec7a6a239bbe98a3415ac79332c36998dadda24653d8c14954d65fb8e477caa507ceb1f61e74fd7d0a6a7647f4f4bb133034bdd7ff8fe592787597dcd2dbb0
p50
aa(lp51
Vhttp://video.study.163.com/edu-video/nos/flv/2015/02/27/1269010_shd.flv?ak=99ed7479ee303d1b1361b0ee5a4abcee9187469e6f5a484096682483ea1338357cd34434dfed20ddc83889ac3fec7ae3fa058c2b4aeca7c5179f5099676d3077fd22f0a6556a9702b53b2c87906e579c5e32b4df98e0528866f8b0cccbc20dc6dfac4d6536764a6d54ca2d79bb9b8a9a05ec7a6a239bbe98a3415ac79332c36998dadda24653d8c14954d65fb8e477caa507ceb1f61e74fd7d0a6a7647f4f4bb133034bdd7ff8fe592787597dcd2dbb0
p52
aa(lp53
Vhttp://video.study.163.com/edu-video/nos/flv/2015/02/27/1271006_shd.flv?ak=99ed7479ee303d1b1361b0ee5a4abcee9187469e6f5a484096682483ea133835ab8a4ce72f9aa92e0b177ff762bfce827c536d82b767b6c0f51eefb9a59f3f43fd22f0a6556a9702b53b2c87906e579c5e32b4df98e0528866f8b0cccbc20dc6dfac4d6536764a6d54ca2d79bb9b8a9a05ec7a6a239bbe98a3415ac79332c36998dadda24653d8c14954d65fb8e477caa507ceb1f61e74fd7d0a6a7647f4f4bb133034bdd7ff8fe592787597dcd2dbb0
p54
aa(lp55
Vhttp://video.study.163.com/edu-video/nos/flv/2015/02/27/1270011_shd.flv?ak=99ed7479ee303d1b1361b0ee5a4abcee9187469e6f5a484096682483ea133835bbd65f18cb25f4bbbc693909aa8e4a9e8c961c4ec4f6d703ce0626b0e781149efd22f0a6556a9702b53b2c87906e579c5e32b4df98e0528866f8b0cccbc20dc6dfac4d6536764a6d54ca2d79bb9b8a9a05ec7a6a239bbe98a3415ac79332c36998dadda24653d8c14954d65fb8e477caa507ceb1f61e74fd7d0a6a7647f4f4bb133034bdd7ff8fe592787597dcd2dbb0
p56
aa(lp57
Vhttp://video.study.163.com/edu-video/nos/flv/2015/02/28/1271016_shd.flv?ak=99ed7479ee303d1b1361b0ee5a4abcee9187469e6f5a484096682483ea133835dd04e9f0ff69b4d131e703bacfa13f7f3dba2741290f88539a193b787aa8cbb2fd22f0a6556a9702b53b2c87906e579c5e32b4df98e0528866f8b0cccbc20dc6dfac4d6536764a6d54ca2d79bb9b8a9a05ec7a6a239bbe98a3415ac79332c36998dadda24653d8c14954d65fb8e477caa507ceb1f61e74fd7d0a6a7647f4f4bb133034bdd7ff8fe592787597dcd2dbb0
p58
aa(lp59
Vhttp://video.study.163.com/edu-video/nos/flv/2015/02/28/1271017_shd.flv?ak=99ed7479ee303d1b1361b0ee5a4abcee9187469e6f5a484096682483ea13383567110e445f1ca44dcee97d3ab49e7bb9e67b7b817340f3b5326a46a193214126fd22f0a6556a9702b53b2c87906e579c5e32b4df98e0528866f8b0cccbc20dc6dfac4d6536764a6d54ca2d79bb9b8a9a05ec7a6a239bbe98a3415ac79332c36998dadda24653d8c14954d65fb8e477caa507ceb1f61e74fd7d0a6a7647f4f4bb133034bdd7ff8fe592787597dcd2dbb0
p60
aa(lp61
Vhttp://video.study.163.com/edu-video/nos/flv/2015/02/28/1269024_shd.flv?ak=99ed7479ee303d1b1361b0ee5a4abcee9187469e6f5a484096682483ea1338354215a3fd868169137c92152dee394054b73a1b43eb392981cc854a2201e3d5d7fd22f0a6556a9702b53b2c87906e579c5e32b4df98e0528866f8b0cccbc20dc6dfac4d6536764a6d54ca2d79bb9b8a9a05ec7a6a239bbe98a3415ac79332c36998dadda24653d8c14954d65fb8e477caa507ceb1f61e74fd7d0a6a7647f4f4bb133034bdd7ff8fe592787597dcd2dbb0
p62
aa(lp63
Vhttp://video.study.163.com/edu-video/nos/flv/2015/03/01/1269041_shd.flv?ak=99ed7479ee303d1b1361b0ee5a4abcee9187469e6f5a484096682483ea1338351990d5564348739cd9952c1c47399184bfd89fbcfd4ba5f04a819da3f99857b9fd22f0a6556a9702b53b2c87906e579c5e32b4df98e0528866f8b0cccbc20dc6dfac4d6536764a6d54ca2d79bb9b8a9a05ec7a6a239bbe98a3415ac79332c36998dadda24653d8c14954d65fb8e477caa507ceb1f61e74fd7d0a6a7647f4f4bb133034bdd7ff8fe592787597dcd2dbb0
p64
aa(lp65
Vhttp://video.study.163.com/edu-video/nos/flv/2015/03/01/1271037_shd.flv?ak=99ed7479ee303d1b1361b0ee5a4abcee9187469e6f5a484096682483ea13383561042ed4b0d86630f95bd3c63ce660916586196e2011f2032188a07c0ad156c9fd22f0a6556a9702b53b2c87906e579c5e32b4df98e0528866f8b0cccbc20dc6dfac4d6536764a6d54ca2d79bb9b8a9a05ec7a6a239bbe98a3415ac79332c36998dadda24653d8c14954d65fb8e477caa507ceb1f61e74fd7d0a6a7647f4f4bb133034bdd7ff8fe592787597dcd2dbb0
p66
aa(lp67
Vhttp://video.study.163.com/edu-video/nos/flv/2015/03/01/1270037_shd.flv?ak=99ed7479ee303d1b1361b0ee5a4abcee9187469e6f5a484096682483ea133835e517c96b8635012f4a05ba16831168f74396f8964dcf410cdb4b5d125a707173fd22f0a6556a9702b53b2c87906e579c5e32b4df98e0528866f8b0cccbc20dc6dfac4d6536764a6d54ca2d79bb9b8a9a05ec7a6a239bbe98a3415ac79332c36998dadda24653d8c14954d65fb8e477caa507ceb1f61e74fd7d0a6a7647f4f4bb133034bdd7ff8fe592787597dcd2dbb0
p68
aa(lp69
Vhttp://video.study.163.com/edu-video/nos/flv/2015/03/01/1271039_shd.flv?ak=99ed7479ee303d1b1361b0ee5a4abcee9187469e6f5a484096682483ea133835d5a6e3c56bc030fd49a15219dfa6d4bd96bdb7097ae0a5fa151962c0863d3263fd22f0a6556a9702b53b2c87906e579c5e32b4df98e0528866f8b0cccbc20dc6dfac4d6536764a6d54ca2d79bb9b8a9a05ec7a6a239bbe98a3415ac79332c36998dadda24653d8c14954d65fb8e477caa507ceb1f61e74fd7d0a6a7647f4f4bb133034bdd7ff8fe592787597dcd2dbb0
p70
aa(lp71
Vhttp://video.study.163.com/edu-video/nos/flv/2015/03/01/1269043_shd.flv?ak=99ed7479ee303d1b1361b0ee5a4abcee9187469e6f5a484096682483ea133835b4cb1c9de4fe81d1f83973678abcdda8b67ef6c43a5c80299cf2b9341adc18fdfd22f0a6556a9702b53b2c87906e579c5e32b4df98e0528866f8b0cccbc20dc6dfac4d6536764a6d54ca2d79bb9b8a9a05ec7a6a239bbe98a3415ac79332c36998dadda24653d8c14954d65fb8e477caa507ceb1f61e74fd7d0a6a7647f4f4bb133034bdd7ff8fe592787597dcd2dbb0
p72
aa(lp73
Vhttp://video.study.163.com/edu-video/nos/flv/2015/03/01/1269045_shd.flv?ak=99ed7479ee303d1b1361b0ee5a4abcee9187469e6f5a484096682483ea13383545e0f81479d60e8502d14248ce8044b09db1cd427077bfc0760fafbddafd4783fd22f0a6556a9702b53b2c87906e579c5e32b4df98e0528866f8b0cccbc20dc6dfac4d6536764a6d54ca2d79bb9b8a9a05ec7a6a239bbe98a3415ac79332c36998dadda24653d8c14954d65fb8e477caa507ceb1f61e74fd7d0a6a7647f4f4bb133034bdd7ff8fe592787597dcd2dbb0
p74
aa(lp75
Vhttp://video.study.163.com/edu-video/nos/flv/2015/03/01/1270039_shd.flv?ak=99ed7479ee303d1b1361b0ee5a4abcee9187469e6f5a484096682483ea133835021f7d3c073e24920b945198693d62ddad83ff22424881c143d286e4c629dac0fd22f0a6556a9702b53b2c87906e579c5e32b4df98e0528866f8b0cccbc20dc6dfac4d6536764a6d54ca2d79bb9b8a9a05ec7a6a239bbe98a3415ac79332c36998dadda24653d8c14954d65fb8e477caa507ceb1f61e74fd7d0a6a7647f4f4bb133034bdd7ff8fe592787597dcd2dbb0
p76
aa(lp77
Vhttp://video.study.163.com/edu-video/nos/flv/2015/03/01/1271068_shd.flv?ak=99ed7479ee303d1b1361b0ee5a4abcee9187469e6f5a484096682483ea133835847049a5f475f00e4997852c79b5883e794870d433339c2518d5c228c49912fafd22f0a6556a9702b53b2c87906e579c5e32b4df98e0528866f8b0cccbc20dc6dfac4d6536764a6d54ca2d79bb9b8a9a05ec7a6a239bbe98a3415ac79332c36998dadda24653d8c14954d65fb8e477caa507ceb1f61e74fd7d0a6a7647f4f4bb133034bdd7ff8fe592787597dcd2dbb0
p78
aa(lp79
Vhttp://video.study.163.com/edu-video/nos/flv/2015/03/01/1271071_shd.flv?ak=99ed7479ee303d1b1361b0ee5a4abcee9187469e6f5a484096682483ea133835011c2072b78e9a72f9816488ac94bcf1686182d395352c0815b8759fc422d1d6fd22f0a6556a9702b53b2c87906e579c5e32b4df98e0528866f8b0cccbc20dc6dfac4d6536764a6d54ca2d79bb9b8a9a05ec7a6a239bbe98a3415ac79332c36998dadda24653d8c14954d65fb8e477caa507ceb1f61e74fd7d0a6a7647f4f4bb133034bdd7ff8fe592787597dcd2dbb0
p80
aa(lp81
Vhttp://video.study.163.com/edu-video/nos/flv/2015/03/02/1270066_shd.flv?ak=99ed7479ee303d1b1361b0ee5a4abcee9187469e6f5a484096682483ea13383524d6edaffe0747e994e428409b53949e29d9d7d488a42857ad2c588bfd091c52fd22f0a6556a9702b53b2c87906e579c5e32b4df98e0528866f8b0cccbc20dc6dfac4d6536764a6d54ca2d79bb9b8a9a05ec7a6a239bbe98a3415ac79332c36998dadda24653d8c14954d65fb8e477caa507ceb1f61e74fd7d0a6a7647f4f4bb133034bdd7ff8fe592787597dcd2dbb0
p82
aa(lp83
Vhttp://video.study.163.com/edu-video/nos/flv/2015/03/02/1270068_shd.flv?ak=99ed7479ee303d1b1361b0ee5a4abcee9187469e6f5a484096682483ea133835adbb0c9391a1f0d5a2e5d5d78250478bab796e6ecbe3faea8f05bcae491167c7fd22f0a6556a9702b53b2c87906e579c5e32b4df98e0528866f8b0cccbc20dc6dfac4d6536764a6d54ca2d79bb9b8a9a05ec7a6a239bbe98a3415ac79332c36998dadda24653d8c14954d65fb8e477caa507ceb1f61e74fd7d0a6a7647f4f4bb133034bdd7ff8fe592787597dcd2dbb0
p84
aa(lp85
Vhttp://video.study.163.com/edu-video/nos/flv/2015/03/02/1270069_shd.flv?ak=99ed7479ee303d1b1361b0ee5a4abcee9187469e6f5a484096682483ea1338355a0672e30714c24ef4f85cd3edc2152cc0eef4a23b04d5acd9080ac6d40ef976fd22f0a6556a9702b53b2c87906e579c5e32b4df98e0528866f8b0cccbc20dc6dfac4d6536764a6d54ca2d79bb9b8a9a05ec7a6a239bbe98a3415ac79332c36998dadda24653d8c14954d65fb8e477caa507ceb1f61e74fd7d0a6a7647f4f4bb133034bdd7ff8fe592787597dcd2dbb0
p86
aa(lp87
Vhttp://video.study.163.com/edu-video/nos/flv/2015/03/02/1269065_shd.flv?ak=99ed7479ee303d1b1361b0ee5a4abcee9187469e6f5a484096682483ea1338351967604f04d0d1b854e251b94d13bbdc3723c995cc068dd70c4cb2c741f916acfd22f0a6556a9702b53b2c87906e579c5e32b4df98e0528866f8b0cccbc20dc6dfac4d6536764a6d54ca2d79bb9b8a9a05ec7a6a239bbe98a3415ac79332c36998dadda24653d8c14954d65fb8e477caa507ceb1f61e74fd7d0a6a7647f4f4bb133034bdd7ff8fe592787597dcd2dbb0
p88
aa(lp89
Vhttp://video.study.163.com/edu-video/nos/flv/2015/03/02/1270071_shd.flv?ak=99ed7479ee303d1b1361b0ee5a4abcee9187469e6f5a484096682483ea133835d6d7d4772e151871db14013f8e9f03d32797b40bdb8a0969af0ce9cc0c1cf091fd22f0a6556a9702b53b2c87906e579c5e32b4df98e0528866f8b0cccbc20dc6dfac4d6536764a6d54ca2d79bb9b8a9a05ec7a6a239bbe98a3415ac79332c36998dadda24653d8c14954d65fb8e477caa507ceb1f61e74fd7d0a6a7647f4f4bb133034bdd7ff8fe592787597dcd2dbb0
p90
aa(lp91
Vhttp://video.study.163.com/edu-video/nos/flv/2015/03/02/1270072_shd.flv?ak=99ed7479ee303d1b1361b0ee5a4abcee9187469e6f5a484096682483ea13383558624f014884105d74a5f2a6b93f3b694f66985dd8737d8605ce475403fb937cfd22f0a6556a9702b53b2c87906e579c5e32b4df98e0528866f8b0cccbc20dc6dfac4d6536764a6d54ca2d79bb9b8a9a05ec7a6a239bbe98a3415ac79332c36998dadda24653d8c14954d65fb8e477caa507ceb1f61e74fd7d0a6a7647f4f4bb133034bdd7ff8fe592787597dcd2dbb0
p92
aa(lp93
Vhttp://video.study.163.com/edu-video/nos/flv/2015/03/02/1271075_shd.flv?ak=99ed7479ee303d1b1361b0ee5a4abcee9187469e6f5a484096682483ea133835e248a602f766722015d1a34afee8b199d6f5a4f24ff28cd4fcdd86096f4821d9fd22f0a6556a9702b53b2c87906e579c5e32b4df98e0528866f8b0cccbc20dc6dfac4d6536764a6d54ca2d79bb9b8a9a05ec7a6a239bbe98a3415ac79332c36998dadda24653d8c14954d65fb8e477caa507ceb1f61e74fd7d0a6a7647f4f4bb133034bdd7ff8fe592787597dcd2dbb0
p94
aa(lp95
Vhttp://video.study.163.com/edu-video/nos/flv/2015/03/02/1269066_shd.flv?ak=99ed7479ee303d1b1361b0ee5a4abcee9187469e6f5a484096682483ea133835a31d935047830ed9d4417e8d4fbbed71f64718016fcc5373581b2a68f61ef9d3fd22f0a6556a9702b53b2c87906e579c5e32b4df98e0528866f8b0cccbc20dc6dfac4d6536764a6d54ca2d79bb9b8a9a05ec7a6a239bbe98a3415ac79332c36998dadda24653d8c14954d65fb8e477caa507ceb1f61e74fd7d0a6a7647f4f4bb133034bdd7ff8fe592787597dcd2dbb0
p96
aaaa.